; Function Attrs: mustprogress nofree norecurse nosync nounwind willreturn memory(argmem: read) uwtable
define internal range(i32 -1, 5) i32 @pg_euctw_verifychar(ptr noundef readonly captures(none) %0, i32 noundef %1) #0 {
  %3 = getelementptr inbounds nuw i8, ptr %0, i64 1
  %4 = load i8, ptr %0, align 1
  switch i8 %4, label %18 [
    i8 -114, label %5
    i8 -113, label %25
  ]

5:                                                ; preds = %2
  %6 = icmp slt i32 %1, 4
  br i1 %6, label %25, label %7

7:                                                ; preds = %5
  %8 = load i8, ptr %3, align 1
  %9 = add i8 %8, 88
  %or.cond = icmp ult i8 %9, -7
  br i1 %or.cond, label %25, label %10

10:                                               ; preds = %7
  %11 = getelementptr inbounds nuw i8, ptr %0, i64 2
  %12 = load i8, ptr %11, align 1
  %13 = add i8 %12, 95
  %or.cond5 = icmp ult i8 %13, 94
  br i1 %or.cond5, label %14, label %25

14:                                               ; preds = %10
  %15 = getelementptr inbounds nuw i8, ptr %0, i64 3
  %16 = load i8, ptr %15, align 1
  %17 = add i8 %16, 95
  %or.cond8 = icmp ult i8 %17, 94
  br i1 %or.cond8, label %24, label %25

18:                                               ; preds = %2
  %.not = icmp sgt i8 %4, -1
  br i1 %.not, label %24, label %19

19:                                               ; preds = %18
  %20 = icmp slt i32 %1, 2
  br i1 %20, label %25, label %21

21:                                               ; preds = %19
  %22 = load i8, ptr %3, align 1
  %23 = add i8 %22, 95
  %or.cond11 = icmp ult i8 %23, 94
  br i1 %or.cond11, label %24, label %25

24:                                               ; preds = %18, %21, %14
  %.031 = phi i32 [ 2, %21 ], [ 4, %14 ], [ 1, %18 ]
  br label %25

25:                                               ; preds = %21, %19, %2, %14, %10, %7, %5, %24
  %.0 = phi i32 [ %.031, %24 ], [ -1, %5 ], [ -1, %7 ], [ -1, %10 ], [ -1, %14 ], [ -1, %2 ], [ -1, %19 ], [ -1, %21 ]
  ret i32 %.0
}